target datalayout = "e-m:e-p270:32:32-p271:32:32-p272:64:64-i64:64-i128:128-f80:128-n8:16:32:64-S128"
target triple = "x86_64-pc-linux-gnu"

%"class.cv::tinyxml2::StrPair" = type { i32, ptr, ptr }
%"class.cv::tinyxml2::XMLNode" = type { ptr, ptr, ptr, %"class.cv::tinyxml2::StrPair", ptr, ptr, ptr, ptr, ptr }

@_ZN2cv8tinyxml27StrPairD1Ev = hidden unnamed_addr alias void (ptr), ptr @_ZN2cv8tinyxml27StrPairD2Ev

; Function Attrs: mustprogress nounwind uwtable
define hidden void @_ZN2cv8tinyxml27XMLNode6UnlinkEPS1_(ptr noundef nonnull align 8 dereferenceable(88) %0, ptr noundef %1) #0 align 2 {
  %3 = alloca ptr, align 8
  %4 = alloca ptr, align 8
  store ptr %0, ptr %3, align 8, !tbaa !55
  store ptr %1, ptr %4, align 8, !tbaa !55
  %5 = load ptr, ptr %3, align 8
  %6 = load ptr, ptr %4, align 8, !tbaa !55
  %7 = getelementptr inbounds nuw %"class.cv::tinyxml2::XMLNode", ptr %5, i32 0, i32 4
  %8 = load ptr, ptr %7, align 8, !tbaa !113
  %9 = icmp eq ptr %6, %8
  br i1 %9, label %10, label %16

10:                                               ; preds = %2
  %11 = getelementptr inbounds nuw %"class.cv::tinyxml2::XMLNode", ptr %5, i32 0, i32 4
  %12 = load ptr, ptr %11, align 8, !tbaa !113
  %13 = getelementptr inbounds nuw %"class.cv::tinyxml2::XMLNode", ptr %12, i32 0, i32 7
  %14 = load ptr, ptr %13, align 8, !tbaa !114
  %15 = getelementptr inbounds nuw %"class.cv::tinyxml2::XMLNode", ptr %5, i32 0, i32 4
  store ptr %14, ptr %15, align 8, !tbaa !113
  br label %16

16:                                               ; preds = %10, %2
  %17 = load ptr, ptr %4, align 8, !tbaa !55
  %18 = getelementptr inbounds nuw %"class.cv::tinyxml2::XMLNode", ptr %5, i32 0, i32 5
  %19 = load ptr, ptr %18, align 8, !tbaa !117
  %20 = icmp eq ptr %17, %19
  br i1 %20, label %21, label %27

21:                                               ; preds = %16
  %22 = getelementptr inbounds nuw %"class.cv::tinyxml2::XMLNode", ptr %5, i32 0, i32 5
  %23 = load ptr, ptr %22, align 8, !tbaa !117
  %24 = getelementptr inbounds nuw %"class.cv::tinyxml2::XMLNode", ptr %23, i32 0, i32 6
  %25 = load ptr, ptr %24, align 8, !tbaa !118
  %26 = getelementptr inbounds nuw %"class.cv::tinyxml2::XMLNode", ptr %5, i32 0, i32 5
  store ptr %25, ptr %26, align 8, !tbaa !117
  br label %27

27:                                               ; preds = %21, %16
  %28 = load ptr, ptr %4, align 8, !tbaa !55
  %29 = getelementptr inbounds nuw %"class.cv::tinyxml2::XMLNode", ptr %28, i32 0, i32 6
  %30 = load ptr, ptr %29, align 8, !tbaa !118
  %31 = icmp ne ptr %30, null
  br i1 %31, label %32, label %40

32:                                               ; preds = %27
  %33 = load ptr, ptr %4, align 8, !tbaa !55
  %34 = getelementptr inbounds nuw %"class.cv::tinyxml2::XMLNode", ptr %33, i32 0, i32 7
  %35 = load ptr, ptr %34, align 8, !tbaa !114
  %36 = load ptr, ptr %4, align 8, !tbaa !55
  %37 = getelementptr inbounds nuw %"class.cv::tinyxml2::XMLNode", ptr %36, i32 0, i32 6
  %38 = load ptr, ptr %37, align 8, !tbaa !118
  %39 = getelementptr inbounds nuw %"class.cv::tinyxml2::XMLNode", ptr %38, i32 0, i32 7
  store ptr %35, ptr %39, align 8, !tbaa !114
  br label %40

40:                                               ; preds = %32, %27
  %41 = load ptr, ptr %4, align 8, !tbaa !55
  %42 = getelementptr inbounds nuw %"class.cv::tinyxml2::XMLNode", ptr %41, i32 0, i32 7
  %43 = load ptr, ptr %42, align 8, !tbaa !114
  %44 = icmp ne ptr %43, null
  br i1 %44, label %45, label %53

45:                                               ; preds = %40
  %46 = load ptr, ptr %4, align 8, !tbaa !55
  %47 = getelementptr inbounds nuw %"class.cv::tinyxml2::XMLNode", ptr %46, i32 0, i32 6
  %48 = load ptr, ptr %47, align 8, !tbaa !118
  %49 = load ptr, ptr %4, align 8, !tbaa !55
  %50 = getelementptr inbounds nuw %"class.cv::tinyxml2::XMLNode", ptr %49, i32 0, i32 7
  %51 = load ptr, ptr %50, align 8, !tbaa !114
  %52 = getelementptr inbounds nuw %"class.cv::tinyxml2::XMLNode", ptr %51, i32 0, i32 6
  store ptr %48, ptr %52, align 8, !tbaa !118
  br label %53

53:                                               ; preds = %45, %40
  %54 = load ptr, ptr %4, align 8, !tbaa !55
  %55 = getelementptr inbounds nuw %"class.cv::tinyxml2::XMLNode", ptr %54, i32 0, i32 2
  store ptr null, ptr %55, align 8, !tbaa !116
  ret void
}

; Function Attrs: mustprogress uwtable
define hidden void @_ZN2cv8tinyxml27XMLNode14DeleteChildrenEv(ptr noundef nonnull align 8 dereferenceable(88) %0) #3 align 2 {
  %2 = alloca ptr, align 8
  %3 = alloca ptr, align 8
  %4 = alloca ptr, align 8
  store ptr %0, ptr %2, align 8, !tbaa !55
  %5 = load ptr, ptr %2, align 8
  br label %6

6:                                                ; preds = %29, %1
  %7 = getelementptr inbounds nuw %"class.cv::tinyxml2::XMLNode", ptr %5, i32 0, i32 4
  %8 = load ptr, ptr %7, align 8, !tbaa !113
  %9 = icmp ne ptr %8, null
  br i1 %9, label %10, label %30

10:                                               ; preds = %6
  call void @llvm.lifetime.start.p0(i64 8, ptr %3) #17
  %11 = getelementptr inbounds nuw %"class.cv::tinyxml2::XMLNode", ptr %5, i32 0, i32 4
  %12 = load ptr, ptr %11, align 8, !tbaa !113
  store ptr %12, ptr %3, align 8, !tbaa !55
  %13 = load ptr, ptr %3, align 8, !tbaa !55
  call void @_ZN2cv8tinyxml27XMLNode6UnlinkEPS1_(ptr noundef nonnull align 8 dereferenceable(88) %5, ptr noundef %13)
  %14 = load ptr, ptr %3, align 8, !tbaa !55
  %15 = icmp ne ptr %14, null
  br i1 %15, label %16, label %29

16:                                               ; preds = %10
  call void @llvm.lifetime.start.p0(i64 8, ptr %4) #17
  %17 = load ptr, ptr %3, align 8, !tbaa !55
  %18 = getelementptr inbounds nuw %"class.cv::tinyxml2::XMLNode", ptr %17, i32 0, i32 8
  %19 = load ptr, ptr %18, align 8, !tbaa !57
  store ptr %19, ptr %4, align 8, !tbaa !119
  %20 = load ptr, ptr %3, align 8, !tbaa !55
  %21 = load ptr, ptr %20, align 8, !tbaa !92
  %22 = getelementptr inbounds ptr, ptr %21, i64 16
  %23 = load ptr, ptr %22, align 8
  call void %23(ptr noundef nonnull align 8 dereferenceable(88) %20) #17
  %24 = load ptr, ptr %4, align 8, !tbaa !119
  %25 = load ptr, ptr %3, align 8, !tbaa !55
  %26 = load ptr, ptr %24, align 8, !tbaa !92
  %27 = getelementptr inbounds ptr, ptr %26, i64 4
  %28 = load ptr, ptr %27, align 8
  call void %28(ptr noundef nonnull align 8 dereferenceable(8) %24, ptr noundef %25)
  call void @llvm.lifetime.end.p0(i64 8, ptr %4) #17
  br label %29

29:                                               ; preds = %16, %10
  call void @llvm.lifetime.end.p0(i64 8, ptr %3) #17
  br label %6, !llvm.loop !120

30:                                               ; preds = %6
  %31 = getelementptr inbounds nuw %"class.cv::tinyxml2::XMLNode", ptr %5, i32 0, i32 5
  store ptr null, ptr %31, align 8, !tbaa !117
  %32 = getelementptr inbounds nuw %"class.cv::tinyxml2::XMLNode", ptr %5, i32 0, i32 4
  store ptr null, ptr %32, align 8, !tbaa !113
  ret void
}

; Function Attrs: mustprogress nounwind uwtable
define hidden void @_ZN2cv8tinyxml27XMLNodeD2Ev(ptr noundef nonnull align 8 dereferenceable(88) %0) unnamed_addr #0 align 2 personality ptr @__gxx_personality_v0 {
  %2 = alloca ptr, align 8
  store ptr %0, ptr %2, align 8, !tbaa !55
  %3 = load ptr, ptr %2, align 8
  store ptr getelementptr inbounds inrange(-16, 144) ({ [20 x ptr] }, ptr @_ZTVN2cv8tinyxml27XMLNodeE, i32 0, i32 0, i32 2), ptr %3, align 8, !tbaa !92
  invoke void @_ZN2cv8tinyxml27XMLNode14DeleteChildrenEv(ptr noundef nonnull align 8 dereferenceable(88) %3)
          to label %4 unwind label %14

4:                                                ; preds = %1
  %5 = getelementptr inbounds nuw %"class.cv::tinyxml2::XMLNode", ptr %3, i32 0, i32 2
  %6 = load ptr, ptr %5, align 8, !tbaa !116
  %7 = icmp ne ptr %6, null
  br i1 %7, label %8, label %12

8:                                                ; preds = %4
  %9 = getelementptr inbounds nuw %"class.cv::tinyxml2::XMLNode", ptr %3, i32 0, i32 2
  %10 = load ptr, ptr %9, align 8, !tbaa !116
  invoke void @_ZN2cv8tinyxml27XMLNode6UnlinkEPS1_(ptr noundef nonnull align 8 dereferenceable(88) %10, ptr noundef %3)
          to label %11 unwind label %14

11:                                               ; preds = %8
  br label %12

12:                                               ; preds = %11, %4
  %13 = getelementptr inbounds nuw %"class.cv::tinyxml2::XMLNode", ptr %3, i32 0, i32 3
  call void @_ZN2cv8tinyxml27StrPairD1Ev(ptr noundef nonnull align 8 dereferenceable(24) %13) #17
  ret void

14:                                               ; preds = %8, %1
  %15 = landingpad { ptr, i32 }
          catch ptr null
  %16 = extractvalue { ptr, i32 } %15, 0
  call void @__clang_call_terminate(ptr %16) #15
  unreachable
}