; Function Attrs: mustprogress nounwind uwtable
define hidden void @_ZN2cv8tinyxml27XMLNodeD2Ev(ptr noundef nonnull align 8 dereferenceable(88) initializes((0, 8)) %0) unnamed_addr #0 align 2 personality ptr @__gxx_personality_v0 {
  store ptr getelementptr inbounds nuw inrange(-16, 144) (i8, ptr @_ZTVN2cv8tinyxml27XMLNodeE, i64 16), ptr %0, align 8, !tbaa !39
  %2 = getelementptr inbounds nuw i8, ptr %0, i64 48
  %3 = load ptr, ptr %2, align 8, !tbaa !97
  %.not7.i = icmp eq ptr %3, null
  br i1 %.not7.i, label %.loopexit, label %.lr.ph.i

.lr.ph.i:                                         ; preds = %1
  %4 = getelementptr inbounds nuw i8, ptr %0, i64 56
  br label %5

5:                                                ; preds = %.noexc, %.lr.ph.i
  %6 = phi ptr [ %3, %.lr.ph.i ], [ %30, %.noexc ]
  %7 = getelementptr inbounds nuw i8, ptr %6, i64 72
  %8 = load ptr, ptr %7, align 8, !tbaa !98
  store ptr %8, ptr %2, align 8, !tbaa !97
  %9 = load ptr, ptr %4, align 8, !tbaa !99
  %10 = icmp eq ptr %6, %9
  br i1 %10, label %11, label %14

11:                                               ; preds = %5
  %12 = getelementptr inbounds nuw i8, ptr %9, i64 64
  %13 = load ptr, ptr %12, align 8, !tbaa !100
  store ptr %13, ptr %4, align 8, !tbaa !99
  br label %14

14:                                               ; preds = %11, %5
  %15 = getelementptr inbounds nuw i8, ptr %6, i64 64
  %16 = load ptr, ptr %15, align 8, !tbaa !100
  %.not.i.i = icmp eq ptr %16, null
  br i1 %.not.i.i, label %._crit_edge.i.i, label %17

17:                                               ; preds = %14
  %18 = getelementptr inbounds nuw i8, ptr %16, i64 72
  store ptr %8, ptr %18, align 8, !tbaa !98
  br label %._crit_edge.i.i

._crit_edge.i.i:                                  ; preds = %17, %14
  %.not13.i.i = icmp eq ptr %8, null
  br i1 %.not13.i.i, label %_ZN2cv8tinyxml27XMLNode6UnlinkEPS1_.exit.i, label %19

19:                                               ; preds = %._crit_edge.i.i
  %20 = getelementptr inbounds nuw i8, ptr %8, i64 64
  store ptr %16, ptr %20, align 8, !tbaa !100
  br label %_ZN2cv8tinyxml27XMLNode6UnlinkEPS1_.exit.i

_ZN2cv8tinyxml27XMLNode6UnlinkEPS1_.exit.i:       ; preds = %19, %._crit_edge.i.i
  %21 = getelementptr inbounds nuw i8, ptr %6, i64 16
  store ptr null, ptr %21, align 8, !tbaa !38
  %22 = getelementptr inbounds nuw i8, ptr %6, i64 80
  %23 = load ptr, ptr %22, align 8, !tbaa !41
  %24 = load ptr, ptr %6, align 8, !tbaa !39
  %25 = getelementptr inbounds nuw i8, ptr %24, i64 128
  %26 = load ptr, ptr %25, align 8
  tail call void %26(ptr noundef nonnull align 8 dereferenceable(88) %6) #24
  %27 = load ptr, ptr %23, align 8, !tbaa !39
  %28 = getelementptr inbounds nuw i8, ptr %27, i64 32
  %29 = load ptr, ptr %28, align 8
  invoke void %29(ptr noundef nonnull align 8 dereferenceable(8) %23, ptr noundef nonnull %6)
          to label %.noexc unwind label %64

.noexc:                                           ; preds = %_ZN2cv8tinyxml27XMLNode6UnlinkEPS1_.exit.i
  %30 = load ptr, ptr %2, align 8, !tbaa !97
  %.not.i = icmp eq ptr %30, null
  br i1 %.not.i, label %.loopexit, label %5, !llvm.loop !101

.loopexit:                                        ; preds = %.noexc, %1
  tail call void @llvm.memset.p0.i64(ptr noundef nonnull align 8 dereferenceable(16) %2, i8 0, i64 16, i1 false)
  %31 = getelementptr inbounds nuw i8, ptr %0, i64 16
  %32 = load ptr, ptr %31, align 8, !tbaa !38
  %.not = icmp eq ptr %32, null
  br i1 %.not, label %54, label %33

33:                                               ; preds = %.loopexit
  %34 = getelementptr inbounds nuw i8, ptr %32, i64 48
  %35 = load ptr, ptr %34, align 8, !tbaa !97
  %36 = icmp eq ptr %0, %35
  br i1 %36, label %37, label %40

37:                                               ; preds = %33
  %38 = getelementptr inbounds nuw i8, ptr %35, i64 72
  %39 = load ptr, ptr %38, align 8, !tbaa !98
  store ptr %39, ptr %34, align 8, !tbaa !97
  br label %40

40:                                               ; preds = %37, %33
  %41 = getelementptr inbounds nuw i8, ptr %32, i64 56
  %42 = load ptr, ptr %41, align 8, !tbaa !99
  %43 = icmp eq ptr %0, %42
  br i1 %43, label %44, label %47

44:                                               ; preds = %40
  %45 = getelementptr inbounds nuw i8, ptr %42, i64 64
  %46 = load ptr, ptr %45, align 8, !tbaa !100
  store ptr %46, ptr %41, align 8, !tbaa !99
  br label %47

47:                                               ; preds = %44, %40
  %48 = getelementptr inbounds nuw i8, ptr %0, i64 64
  %49 = load ptr, ptr %48, align 8, !tbaa !100
  %.not.i1 = icmp eq ptr %49, null
  %.phi.trans.insert.i = getelementptr inbounds nuw i8, ptr %0, i64 72
  %.pre.i = load ptr, ptr %.phi.trans.insert.i, align 8, !tbaa !98
  br i1 %.not.i1, label %._crit_edge.i, label %50

50:                                               ; preds = %47
  %51 = getelementptr inbounds nuw i8, ptr %49, i64 72
  store ptr %.pre.i, ptr %51, align 8, !tbaa !98
  br label %._crit_edge.i

._crit_edge.i:                                    ; preds = %50, %47
  %.not13.i = icmp eq ptr %.pre.i, null
  br i1 %.not13.i, label %_ZN2cv8tinyxml27XMLNode6UnlinkEPS1_.exit, label %52

52:                                               ; preds = %._crit_edge.i
  %53 = getelementptr inbounds nuw i8, ptr %.pre.i, i64 64
  store ptr %49, ptr %53, align 8, !tbaa !100
  br label %_ZN2cv8tinyxml27XMLNode6UnlinkEPS1_.exit

_ZN2cv8tinyxml27XMLNode6UnlinkEPS1_.exit:         ; preds = %._crit_edge.i, %52
  store ptr null, ptr %31, align 8, !tbaa !38
  br label %54

54:                                               ; preds = %_ZN2cv8tinyxml27XMLNode6UnlinkEPS1_.exit, %.loopexit
  %55 = getelementptr inbounds nuw i8, ptr %0, i64 24
  %56 = load i32, ptr %55, align 8, !tbaa !3
  %57 = and i32 %56, 512
  %.not.i.i2 = icmp eq i32 %57, 0
  br i1 %.not.i.i2, label %_ZN2cv8tinyxml27StrPairD2Ev.exit, label %58

58:                                               ; preds = %54
  %59 = getelementptr inbounds nuw i8, ptr %0, i64 32
  %60 = load ptr, ptr %59, align 8, !tbaa !10
  %61 = icmp eq ptr %60, null
  br i1 %61, label %_ZN2cv8tinyxml27StrPairD2Ev.exit, label %62

62:                                               ; preds = %58
  tail call void @_ZdaPv(ptr noundef nonnull %60) #23
  br label %_ZN2cv8tinyxml27StrPairD2Ev.exit

_ZN2cv8tinyxml27StrPairD2Ev.exit:                 ; preds = %54, %58, %62
  store i32 0, ptr %55, align 8, !tbaa !3
  %63 = getelementptr inbounds nuw i8, ptr %0, i64 32
  tail call void @llvm.memset.p0.i64(ptr noundef nonnull align 8 dereferenceable(16) %63, i8 0, i64 16, i1 false)
  ret void

64:                                               ; preds = %_ZN2cv8tinyxml27XMLNode6UnlinkEPS1_.exit.i
  %65 = landingpad { ptr, i32 }
          catch ptr null
  %66 = extractvalue { ptr, i32 } %65, 0
  tail call void @__clang_call_terminate(ptr %66) #25
  unreachable
}